target datalayout = "e-m:e-p270:32:32-p271:32:32-p272:64:64-i64:64-i128:128-f80:128-n8:16:32:64-S128"
target triple = "x86_64-pc-linux-gnu"

@.str.64 = private unnamed_addr constant [11 x i8] c"attrgetter\00", align 1

; Function Attrs: inlinehint nounwind uwtable
define internal i64 @_PyVectorcall_NARGS(i64 noundef %0) #3 {
  %2 = alloca i64, align 8
  store i64 %0, ptr %2, align 8, !tbaa !18
  %3 = load i64, ptr %2, align 8, !tbaa !18
  %4 = and i64 %3, 9223372036854775807
  ret i64 %4
}

; Function Attrs: nounwind uwtable
define internal ptr @attrgetter_vectorcall(ptr noundef %0, ptr noundef %1, i64 noundef %2, ptr noundef %3) #0 {
  %5 = alloca ptr, align 8
  %6 = alloca ptr, align 8
  %7 = alloca ptr, align 8
  %8 = alloca i64, align 8
  %9 = alloca ptr, align 8
  %10 = alloca i64, align 8
  %11 = alloca i32, align 4
  store ptr %0, ptr %6, align 8, !tbaa !4
  store ptr %1, ptr %7, align 8, !tbaa !16
  store i64 %2, ptr %8, align 8, !tbaa !18
  store ptr %3, ptr %9, align 8, !tbaa !4
  %12 = load ptr, ptr %9, align 8, !tbaa !4
  %13 = icmp eq ptr %12, null
  br i1 %13, label %19, label %14

14:                                               ; preds = %4
  %15 = load ptr, ptr %9, align 8, !tbaa !4
  %16 = call i32 @_PyArg_NoKwnames(ptr noundef @.str.64, ptr noundef %15)
  %17 = icmp ne i32 %16, 0
  br i1 %17, label %19, label %18

18:                                               ; preds = %14
  store ptr null, ptr %5, align 8
  br label %39

19:                                               ; preds = %14, %4
  call void @llvm.lifetime.start.p0(i64 8, ptr %10) #7
  %20 = load i64, ptr %8, align 8, !tbaa !18
  %21 = call i64 @_PyVectorcall_NARGS(i64 noundef %20)
  store i64 %21, ptr %10, align 8, !tbaa !18
  %22 = load i64, ptr %10, align 8, !tbaa !18
  %23 = icmp sle i64 1, %22
  br i1 %23, label %24, label %27

24:                                               ; preds = %19
  %25 = load i64, ptr %10, align 8, !tbaa !18
  %26 = icmp sle i64 %25, 1
  br i1 %26, label %32, label %27

27:                                               ; preds = %24, %19
  %28 = load i64, ptr %10, align 8, !tbaa !18
  %29 = call i32 @_PyArg_CheckPositional(ptr noundef @.str.64, i64 noundef %28, i64 noundef 1, i64 noundef 1)
  %30 = icmp ne i32 %29, 0
  br i1 %30, label %32, label %31

31:                                               ; preds = %27
  store ptr null, ptr %5, align 8
  store i32 1, ptr %11, align 4
  br label %38

32:                                               ; preds = %27, %24
  %33 = load ptr, ptr %6, align 8, !tbaa !4
  %34 = load ptr, ptr %7, align 8, !tbaa !16
  %35 = getelementptr ptr, ptr %34, i64 0
  %36 = load ptr, ptr %35, align 8, !tbaa !4
  %37 = call ptr @attrgetter_call_impl(ptr noundef %33, ptr noundef %36)
  store ptr %37, ptr %5, align 8
  store i32 1, ptr %11, align 4
  br label %38

38:                                               ; preds = %32, %31
  call void @llvm.lifetime.end.p0(i64 8, ptr %10) #7
  br label %39

39:                                               ; preds = %38, %18
  %40 = load ptr, ptr %5, align 8
  ret ptr %40
}